target datalayout = "e-m:e-p270:32:32-p271:32:32-p272:64:64-i64:64-i128:128-f80:128-n8:16:32:64-S128"
target triple = "x86_64-pc-linux-gnu"

%struct.Abc_Ntk_t_ = type { i32, i32, ptr, ptr, ptr, ptr, ptr, ptr, ptr, ptr, ptr, ptr, ptr, [11 x i32], i32, i32, i32, i32, ptr, i32, ptr, ptr, i32, i32, i32, double, i32, %struct.Vec_Int_t_, ptr, ptr, ptr, ptr, ptr, float, i32, ptr, ptr, ptr, ptr, ptr, ptr, ptr, ptr, ptr, ptr, ptr, ptr, ptr, ptr, ptr, ptr, ptr, ptr, ptr, ptr, ptr }
%struct.Vec_Int_t_ = type { i32, i32, ptr }
%struct.Vec_Ptr_t_ = type { i32, i32, ptr }
%struct.Abc_Obj_t_ = type { ptr, ptr, i32, i32, %struct.Vec_Int_t_, %struct.Vec_Int_t_, %union.anon, %union.anon.0 }
%union.anon = type { ptr }
%union.anon.0 = type { ptr }

@.str = private unnamed_addr constant [38 x i8] c"Node without mapping is encountered.\0A\00", align 1

; Function Attrs: nounwind uwtable
define internal i32 @Vec_IntSize(ptr noundef %0) #0 {
  %2 = alloca ptr, align 8
  store ptr %0, ptr %2, align 8
  %3 = load ptr, ptr %2, align 8
  %4 = getelementptr inbounds %struct.Vec_Int_t_, ptr %3, i32 0, i32 1
  %5 = load i32, ptr %4, align 4
  ret i32 %5
}

; Function Attrs: nounwind uwtable
define internal i32 @Abc_NtkHasMapping(ptr noundef %0) #0 {
  %2 = alloca ptr, align 8
  store ptr %0, ptr %2, align 8
  %3 = load ptr, ptr %2, align 8
  %4 = getelementptr inbounds %struct.Abc_Ntk_t_, ptr %3, i32 0, i32 1
  %5 = load i32, ptr %4, align 4
  %6 = icmp eq i32 %5, 4
  %7 = zext i1 %6 to i32
  ret i32 %7
}

; Function Attrs: nounwind uwtable
define internal ptr @Vec_PtrEntry(ptr noundef %0, i32 noundef %1) #0 {
  %3 = alloca ptr, align 8
  %4 = alloca i32, align 4
  store ptr %0, ptr %3, align 8
  store i32 %1, ptr %4, align 4
  %5 = load ptr, ptr %3, align 8
  %6 = getelementptr inbounds %struct.Vec_Ptr_t_, ptr %5, i32 0, i32 2
  %7 = load ptr, ptr %6, align 8
  %8 = load i32, ptr %4, align 4
  %9 = sext i32 %8 to i64
  %10 = getelementptr inbounds ptr, ptr %7, i64 %9
  %11 = load ptr, ptr %10, align 8
  ret ptr %11
}

; Function Attrs: nounwind uwtable
define internal i32 @Abc_ObjIsBarBuf(ptr noundef %0) #0 {
  %2 = alloca ptr, align 8
  store ptr %0, ptr %2, align 8
  %3 = load ptr, ptr %2, align 8
  %4 = getelementptr inbounds %struct.Abc_Obj_t_, ptr %3, i32 0, i32 0
  %5 = load ptr, ptr %4, align 8
  %6 = call i32 @Abc_NtkHasMapping(ptr noundef %5)
  %7 = icmp ne i32 %6, 0
  br i1 %7, label %8, label %22

8:                                                ; preds = %1
  %9 = load ptr, ptr %2, align 8
  %10 = call i32 @Abc_ObjIsNode(ptr noundef %9)
  %11 = icmp ne i32 %10, 0
  br i1 %11, label %12, label %22

12:                                               ; preds = %8
  %13 = load ptr, ptr %2, align 8
  %14 = getelementptr inbounds %struct.Abc_Obj_t_, ptr %13, i32 0, i32 4
  %15 = call i32 @Vec_IntSize(ptr noundef %14)
  %16 = icmp eq i32 %15, 1
  br i1 %16, label %17, label %22

17:                                               ; preds = %12
  %18 = load ptr, ptr %2, align 8
  %19 = getelementptr inbounds %struct.Abc_Obj_t_, ptr %18, i32 0, i32 6
  %20 = load ptr, ptr %19, align 8
  %21 = icmp eq ptr %20, null
  br label %22

22:                                               ; preds = %17, %12, %8, %1
  %23 = phi i1 [ false, %12 ], [ false, %8 ], [ false, %1 ], [ %21, %17 ]
  %24 = zext i1 %23 to i32
  ret i32 %24
}

; Function Attrs: nounwind uwtable
define internal i32 @Abc_ObjIsNode(ptr noundef %0) #0 {
  %2 = alloca ptr, align 8
  store ptr %0, ptr %2, align 8
  %3 = load ptr, ptr %2, align 8
  %4 = getelementptr inbounds %struct.Abc_Obj_t_, ptr %3, i32 0, i32 3
  %5 = load i32, ptr %4, align 4
  %6 = and i32 %5, 15
  %7 = icmp eq i32 %6, 7
  %8 = zext i1 %7 to i32
  ret i32 %8
}

; Function Attrs: nounwind uwtable
define internal ptr @Abc_NtkObj(ptr noundef %0, i32 noundef %1) #0 {
  %3 = alloca ptr, align 8
  %4 = alloca i32, align 4
  store ptr %0, ptr %3, align 8
  store i32 %1, ptr %4, align 4
  %5 = load ptr, ptr %3, align 8
  %6 = getelementptr inbounds %struct.Abc_Ntk_t_, ptr %5, i32 0, i32 5
  %7 = load ptr, ptr %6, align 8
  %8 = load i32, ptr %4, align 4
  %9 = call ptr @Vec_PtrEntry(ptr noundef %7, i32 noundef %8)
  ret ptr %9
}

; Function Attrs: nounwind uwtable
define internal i32 @Vec_PtrSize(ptr noundef %0) #0 {
  %2 = alloca ptr, align 8
  store ptr %0, ptr %2, align 8
  %3 = load ptr, ptr %2, align 8
  %4 = getelementptr inbounds %struct.Vec_Ptr_t_, ptr %3, i32 0, i32 1
  %5 = load i32, ptr %4, align 4
  ret i32 %5
}

; Function Attrs: nounwind uwtable
define double @Abc_NtkGetMappedArea(ptr noundef %0) #0 {
  %2 = alloca ptr, align 8
  %3 = alloca ptr, align 8
  %4 = alloca double, align 8
  %5 = alloca i32, align 4
  store ptr %0, ptr %2, align 8
  store double 0.000000e+00, ptr %4, align 8
  store i32 0, ptr %5, align 4
  br label %6

6:                                                ; preds = %54, %1
  %7 = load i32, ptr %5, align 4
  %8 = load ptr, ptr %2, align 8
  %9 = getelementptr inbounds %struct.Abc_Ntk_t_, ptr %8, i32 0, i32 5
  %10 = load ptr, ptr %9, align 8
  %11 = call i32 @Vec_PtrSize(ptr noundef %10)
  %12 = icmp slt i32 %7, %11
  br i1 %12, label %13, label %17

13:                                               ; preds = %6
  %14 = load ptr, ptr %2, align 8
  %15 = load i32, ptr %5, align 4
  %16 = call ptr @Abc_NtkObj(ptr noundef %14, i32 noundef %15)
  store ptr %16, ptr %3, align 8
  br label %17

17:                                               ; preds = %13, %6
  %18 = phi i1 [ false, %6 ], [ true, %13 ]
  br i1 %18, label %19, label %57

19:                                               ; preds = %17
  %20 = load ptr, ptr %3, align 8
  %21 = icmp eq ptr %20, null
  br i1 %21, label %26, label %22

22:                                               ; preds = %19
  %23 = load ptr, ptr %3, align 8
  %24 = call i32 @Abc_ObjIsNode(ptr noundef %23)
  %25 = icmp ne i32 %24, 0
  br i1 %25, label %27, label %26

26:                                               ; preds = %22, %19
  br label %53

27:                                               ; preds = %22
  %28 = load ptr, ptr %3, align 8
  %29 = call i32 @Abc_ObjIsBarBuf(ptr noundef %28)
  %30 = icmp ne i32 %29, 0
  br i1 %30, label %31, label %32

31:                                               ; preds = %27
  br label %54

32:                                               ; preds = %27
  %33 = load ptr, ptr %3, align 8
  %34 = getelementptr inbounds %struct.Abc_Obj_t_, ptr %33, i32 0, i32 6
  %35 = load ptr, ptr %34, align 8
  %36 = icmp eq ptr %35, null
  br i1 %36, label %37, label %39

37:                                               ; preds = %32
  %38 = call i32 (ptr, ...) @printf(ptr noundef @.str)
  br label %54

39:                                               ; preds = %32
  %40 = load ptr, ptr %3, align 8
  %41 = getelementptr inbounds %struct.Abc_Obj_t_, ptr %40, i32 0, i32 6
  %42 = load ptr, ptr %41, align 8
  %43 = call double @Mio_GateReadArea(ptr noundef %42)
  %44 = load double, ptr %4, align 8
  %45 = fadd double %44, %43
  store double %45, ptr %4, align 8
  %46 = load ptr, ptr %3, align 8
  %47 = call ptr @Abc_NtkFetchTwinNode(ptr noundef %46)
  %48 = icmp ne ptr %47, null
  br i1 %48, label %49, label %52

49:                                               ; preds = %39
  %50 = load i32, ptr %5, align 4
  %51 = add nsw i32 %50, 1
  store i32 %51, ptr %5, align 4
  br label %52

52:                                               ; preds = %49, %39
  br label %53

53:                                               ; preds = %52, %26
  br label %54

54:                                               ; preds = %53, %37, %31
  %55 = load i32, ptr %5, align 4
  %56 = add nsw i32 %55, 1
  store i32 %56, ptr %5, align 4
  br label %6, !llvm.loop !22

57:                                               ; preds = %17
  %58 = load double, ptr %4, align 8
  ret double %58
}