; Function Attrs: nounwind uwtable
define double @Abc_NtkGetMappedArea(ptr noundef readonly captures(none) %0) local_unnamed_addr #0 {
  %2 = getelementptr inbounds nuw i8, ptr %0, i64 32
  %3 = load ptr, ptr %2, align 8
  %4 = getelementptr i8, ptr %3, i64 4
  %.val24 = load i32, ptr %4, align 4
  %5 = icmp sgt i32 %.val24, 0
  br i1 %5, label %.lr.ph, label %.critedge

.lr.ph:                                           ; preds = %1, %32
  %6 = phi ptr [ %34, %32 ], [ %3, %1 ]
  %.026 = phi i32 [ %33, %32 ], [ 0, %1 ]
  %.01325 = phi double [ %.114, %32 ], [ 0.000000e+00, %1 ]
  %7 = getelementptr i8, ptr %6, i64 8
  %.val19.val = load ptr, ptr %7, align 8
  %8 = sext i32 %.026 to i64
  %9 = getelementptr inbounds ptr, ptr %.val19.val, i64 %8
  %10 = load ptr, ptr %9, align 8
  %11 = icmp eq ptr %10, null
  br i1 %11, label %32, label %12

12:                                               ; preds = %.lr.ph
  %13 = getelementptr i8, ptr %10, i64 20
  %.val20 = load i32, ptr %13, align 4
  %14 = and i32 %.val20, 15
  %.not = icmp eq i32 %14, 7
  br i1 %.not, label %15, label %32

15:                                               ; preds = %12
  %16 = load ptr, ptr %10, align 8
  %17 = getelementptr i8, ptr %16, i64 4
  %.val5.i = load i32, ptr %17, align 4
  %.not.i.not = icmp eq i32 %.val5.i, 4
  br i1 %.not.i.not, label %18, label %Abc_ObjIsBarBuf.exit.thread

18:                                               ; preds = %15
  %19 = getelementptr i8, ptr %10, i64 28
  %.val6.i = load i32, ptr %19, align 4
  %20 = icmp eq i32 %.val6.i, 1
  br i1 %20, label %Abc_ObjIsBarBuf.exit, label %Abc_ObjIsBarBuf.exit.thread

Abc_ObjIsBarBuf.exit:                             ; preds = %18
  %21 = getelementptr inbounds nuw i8, ptr %10, i64 56
  %22 = load ptr, ptr %21, align 8
  %.not23 = icmp eq ptr %22, null
  br i1 %.not23, label %32, label %Abc_ObjIsBarBuf.exit.thread

Abc_ObjIsBarBuf.exit.thread:                      ; preds = %15, %18, %Abc_ObjIsBarBuf.exit
  %23 = getelementptr inbounds nuw i8, ptr %10, i64 56
  %24 = load ptr, ptr %23, align 8
  %25 = icmp eq ptr %24, null
  br i1 %25, label %26, label %27

26:                                               ; preds = %Abc_ObjIsBarBuf.exit.thread
  %puts = tail call i32 @puts(ptr nonnull dereferenceable(1) @str)
  br label %32

27:                                               ; preds = %Abc_ObjIsBarBuf.exit.thread
  %28 = tail call double @Mio_GateReadArea(ptr noundef nonnull %24) #28
  %29 = fadd double %.01325, %28
  %30 = tail call ptr @Abc_NtkFetchTwinNode(ptr noundef nonnull %10) #28
  %.not18 = icmp ne ptr %30, null
  %31 = zext i1 %.not18 to i32
  %spec.select = add nsw i32 %.026, %31
  br label %32

32:                                               ; preds = %27, %12, %.lr.ph, %Abc_ObjIsBarBuf.exit, %26
  %.114 = phi double [ %.01325, %.lr.ph ], [ %.01325, %Abc_ObjIsBarBuf.exit ], [ %.01325, %26 ], [ %.01325, %12 ], [ %29, %27 ]
  %.1 = phi i32 [ %.026, %.lr.ph ], [ %.026, %Abc_ObjIsBarBuf.exit ], [ %.026, %26 ], [ %.026, %12 ], [ %spec.select, %27 ]
  %33 = add nsw i32 %.1, 1
  %34 = load ptr, ptr %2, align 8
  %35 = getelementptr i8, ptr %34, i64 4
  %.val = load i32, ptr %35, align 4
  %36 = icmp slt i32 %33, %.val
  br i1 %36, label %.lr.ph, label %.critedge, !llvm.loop !22

.critedge:                                        ; preds = %32, %1
  %.013.lcssa = phi double [ 0.000000e+00, %1 ], [ %.114, %32 ]
  ret double %.013.lcssa
}